; Function Attrs: nounwind uwtable
define dso_local void @pmix_info_out_int(ptr noundef %0, ptr noundef %1, i32 noundef %2) local_unnamed_addr #2 {
  %4 = alloca ptr, align 8
  call void @llvm.lifetime.start.p0(i64 8, ptr nonnull %4) #17
  %5 = call i32 (ptr, ptr, ...) @asprintf(ptr noundef nonnull %4, ptr noundef nonnull @.str.70, i32 noundef %2) #17
  %6 = icmp slt i32 %5, 0
  br i1 %6, label %10, label %7

7:                                                ; preds = %3
  %8 = load ptr, ptr %4, align 8, !tbaa !29
  call void @pmix_info_out(ptr noundef %0, ptr noundef %1, ptr noundef %8)
  %9 = load ptr, ptr %4, align 8, !tbaa !29
  call void @free(ptr noundef %9) #17
  br label %10

10:                                               ; preds = %3, %7
  call void @llvm.lifetime.end.p0(i64 8, ptr nonnull %4) #17
  ret void
}